; ModuleID = '30/562.c'
source_filename = "30/562.c"
target datalayout = "e-m:e-p270:32:32-p271:32:32-p272:64:64-i64:64-f80:128-n8:16:32:64-S128"
target triple = "x86_64-pc-linux-gnu"

@.str = private unnamed_addr constant [3 x i8] c"%d\00", align 1

; Function Attrs: noinline nounwind uwtable
define dso_local i32 @main() #0 {
  %1 = alloca i32, align 4
  %2 = alloca i32, align 4
  %3 = alloca i32, align 4
  %4 = alloca i32, align 4
  %5 = alloca i32, align 4
  %6 = alloca i32, align 4
  store i32 0, i32* %1, align 4
  store i32 1, i32* %2, align 4
  store i32 0, i32* %3, align 4
  store i32 0, i32* %6, align 4
  %7 = call i32 (i8*, ...) @__isoc99_scanf(i8* getelementptr inbounds ([3 x i8], [3 x i8]* @.str, i64 0, i64 0), i32* %4)
  br label %8

8:                                                ; preds = %36, %0
  %9 = load i32, i32* %2, align 4
  %10 = load i32, i32* %4, align 4
  %11 = icmp slt i32 %9, %10
  br i1 %11, label %16, label %12

12:                                               ; preds = %8
  %13 = load i32, i32* %2, align 4
  %14 = load i32, i32* %4, align 4
  %15 = icmp eq i32 %13, %14
  br label %16

16:                                               ; preds = %12, %8
  %17 = phi i1 [ true, %8 ], [ %15, %12 ]
  br i1 %17, label %18, label %44

18:                                               ; preds = %16
  %19 = load i32, i32* %2, align 4
  %20 = srem i32 %19, 7
  %21 = icmp eq i32 %20, 0
  br i1 %21, label %30, label %22

22:                                               ; preds = %18
  %23 = load i32, i32* %2, align 4
  %24 = srem i32 %23, 10
  %25 = icmp eq i32 %24, 7
  br i1 %25, label %30, label %26

26:                                               ; preds = %22
  %27 = load i32, i32* %2, align 4
  %28 = sdiv i32 %27, 10
  %29 = icmp eq i32 %28, 7
  br i1 %29, label %30, label %36

30:                                               ; preds = %26, %22, %18
  %31 = load i32, i32* %6, align 4
  %32 = load i32, i32* %2, align 4
  %33 = load i32, i32* %2, align 4
  %34 = mul nsw i32 %32, %33
  %35 = add nsw i32 %31, %34
  store i32 %35, i32* %6, align 4
  br label %36

36:                                               ; preds = %30, %26
  %37 = load i32, i32* %3, align 4
  %38 = load i32, i32* %2, align 4
  %39 = load i32, i32* %2, align 4
  %40 = mul nsw i32 %38, %39
  %41 = add nsw i32 %37, %40
  store i32 %41, i32* %3, align 4
  %42 = load i32, i32* %2, align 4
  %43 = add nsw i32 %42, 1
  store i32 %43, i32* %2, align 4
  br label %8

44:                                               ; preds = %16
  %45 = load i32, i32* %3, align 4
  %46 = load i32, i32* %6, align 4
  %47 = sub nsw i32 %45, %46
  store i32 %47, i32* %5, align 4
  %48 = load i32, i32* %5, align 4
  %49 = call i32 (i8*, ...) @printf(i8* getelementptr inbounds ([3 x i8], [3 x i8]* @.str, i64 0, i64 0), i32 %48)
  ret i32 0
}

declare dso_local i32 @__isoc99_scanf(i8*, ...) #1

declare dso_local i32 @printf(i8*, ...) #1


!llvm.module.flags = !{!0}
!llvm.ident = !{!1}

!0 = !{i32 1, !"wchar_size", i32 4}
!1 = !{!"clang version 10.0.0-4ubuntu1 "}
